target datalayout = "e-m:e-p270:32:32-p271:32:32-p272:64:64-i64:64-i128:128-f80:128-n8:16:32:64-S128"
target triple = "x86_64-pc-linux-gnu"

%struct.anon = type { i32, [0 x i8] }
%struct.JsonbValue = type { i32, %union.anon }
%union.anon = type { %struct.anon.2 }
%struct.anon.2 = type { i32, ptr, i8 }
%struct.FunctionCallInfoBaseData = type { ptr, ptr, ptr, i32, i8, i16, [0 x %struct.NullableDatum] }
%struct.NullableDatum = type { i64, i8 }
%struct.Jsonb = type { i32, %struct.JsonbContainer }
%struct.JsonbContainer = type { i32, [0 x i32] }

@.str.2 = private unnamed_addr constant [12 x i8] c"jsonfuncs.c\00", align 1
@.str.26 = private unnamed_addr constant [26 x i8] c"cannot delete from scalar\00", align 1
@__func__.jsonb_delete_idx = private unnamed_addr constant [17 x i8] c"jsonb_delete_idx\00", align 1
@.str.28 = private unnamed_addr constant [46 x i8] c"cannot delete from object using integer index\00", align 1

; Function Attrs: inlinehint nounwind uwtable
define internal ptr @DatumGetPointer(i64 noundef %0) #3 {
  %2 = alloca i64, align 8
  store i64 %0, ptr %2, align 8
  %3 = load i64, ptr %2, align 8
  %4 = inttoptr i64 %3 to ptr
  ret ptr %4
}

; Function Attrs: inlinehint nounwind uwtable
define internal i32 @pg_abs_s32(i32 noundef %0) #3 {
  %2 = alloca i32, align 4
  store i32 %0, ptr %2, align 4
  %3 = load i32, ptr %2, align 4
  %4 = sext i32 %3 to i64
  %5 = call i64 @llvm.abs.i64(i64 %4, i1 false)
  %6 = trunc i64 %5 to i32
  ret i32 %6
}

; Function Attrs: inlinehint nounwind uwtable
define internal i64 @PointerGetDatum(ptr noundef %0) #3 {
  %2 = alloca ptr, align 8
  store ptr %0, ptr %2, align 8
  %3 = load ptr, ptr %2, align 8
  %4 = ptrtoint ptr %3 to i64
  ret i64 %4
}

; Function Attrs: inlinehint nounwind uwtable
define internal i32 @DatumGetInt32(i64 noundef %0) #3 {
  %2 = alloca i64, align 8
  store i64 %0, ptr %2, align 8
  %3 = load i64, ptr %2, align 8
  %4 = trunc i64 %3 to i32
  ret i32 %4
}

; Function Attrs: inlinehint nounwind uwtable
define internal ptr @DatumGetJsonbP(i64 noundef %0) #3 {
  %2 = alloca i64, align 8
  store i64 %0, ptr %2, align 8
  %3 = load i64, ptr %2, align 8
  %4 = call ptr @DatumGetPointer(i64 noundef %3)
  %5 = call ptr @pg_detoast_datum(ptr noundef %4)
  ret ptr %5
}

; Function Attrs: nounwind uwtable
define dso_local i64 @jsonb_delete_idx(ptr noundef %0) #0 {
  %2 = alloca i64, align 8
  %3 = alloca ptr, align 8
  %4 = alloca ptr, align 8
  %5 = alloca i32, align 4
  %6 = alloca ptr, align 8
  %7 = alloca ptr, align 8
  %8 = alloca i32, align 4
  %9 = alloca i32, align 4
  %10 = alloca %struct.JsonbValue, align 8
  %11 = alloca ptr, align 8
  %12 = alloca i32, align 4
  %13 = alloca i32, align 4
  store ptr %0, ptr %3, align 8
  call void @llvm.lifetime.start.p0(i64 8, ptr %4) #10
  %14 = load ptr, ptr %3, align 8
  %15 = getelementptr inbounds nuw %struct.FunctionCallInfoBaseData, ptr %14, i32 0, i32 6
  %16 = getelementptr inbounds [0 x %struct.NullableDatum], ptr %15, i64 0, i64 0
  %17 = getelementptr inbounds nuw %struct.NullableDatum, ptr %16, i32 0, i32 0
  %18 = load i64, ptr %17, align 8
  %19 = call ptr @DatumGetJsonbP(i64 noundef %18)
  store ptr %19, ptr %4, align 8
  call void @llvm.lifetime.start.p0(i64 4, ptr %5) #10
  %20 = load ptr, ptr %3, align 8
  %21 = getelementptr inbounds nuw %struct.FunctionCallInfoBaseData, ptr %20, i32 0, i32 6
  %22 = getelementptr inbounds [0 x %struct.NullableDatum], ptr %21, i64 0, i64 1
  %23 = getelementptr inbounds nuw %struct.NullableDatum, ptr %22, i32 0, i32 0
  %24 = load i64, ptr %23, align 8
  %25 = call i32 @DatumGetInt32(i64 noundef %24)
  store i32 %25, ptr %5, align 4
  call void @llvm.lifetime.start.p0(i64 8, ptr %6) #10
  store ptr null, ptr %6, align 8
  call void @llvm.lifetime.start.p0(i64 8, ptr %7) #10
  call void @llvm.lifetime.start.p0(i64 4, ptr %8) #10
  store i32 0, ptr %8, align 4
  call void @llvm.lifetime.start.p0(i64 4, ptr %9) #10
  call void @llvm.lifetime.start.p0(i64 32, ptr %10) #10
  call void @llvm.lifetime.start.p0(i64 8, ptr %11) #10
  store ptr null, ptr %11, align 8
  call void @llvm.lifetime.start.p0(i64 4, ptr %12) #10
  %26 = load ptr, ptr %4, align 8
  %27 = getelementptr inbounds nuw %struct.anon, ptr %26, i32 0, i32 1
  %28 = getelementptr inbounds [0 x i8], ptr %27, i64 0, i64 0
  %29 = load i32, ptr %28, align 4
  %30 = and i32 %29, 268435456
  %31 = icmp ne i32 %30, 0
  br i1 %31, label %32, label %44

32:                                               ; preds = %1
  br label %33

33:                                               ; preds = %32
  br i1 true, label %34, label %36

34:                                               ; preds = %33
  %35 = call zeroext i1 @errstart_cold(i32 noundef 21, ptr noundef null) #11
  br i1 %35, label %38, label %41

36:                                               ; preds = %33
  %37 = call zeroext i1 @errstart(i32 noundef 21, ptr noundef null)
  br i1 %37, label %38, label %41

38:                                               ; preds = %36, %34
  %39 = call i32 @errcode(i32 noundef 50856066)
  %40 = call i32 (ptr, ...) @errmsg(ptr noundef @.str.26)
  call void @errfinish(ptr noundef @.str.2, i32 noundef 4796, ptr noundef @__func__.jsonb_delete_idx)
  br label %41

41:                                               ; preds = %38, %36, %34
  unreachable

42:                                               ; No predecessors!
  br label %43

43:                                               ; preds = %42
  br label %44

44:                                               ; preds = %43, %1
  %45 = load ptr, ptr %4, align 8
  %46 = getelementptr inbounds nuw %struct.anon, ptr %45, i32 0, i32 1
  %47 = getelementptr inbounds [0 x i8], ptr %46, i64 0, i64 0
  %48 = load i32, ptr %47, align 4
  %49 = and i32 %48, 536870912
  %50 = icmp ne i32 %49, 0
  br i1 %50, label %51, label %63

51:                                               ; preds = %44
  br label %52

52:                                               ; preds = %51
  br i1 true, label %53, label %55

53:                                               ; preds = %52
  %54 = call zeroext i1 @errstart_cold(i32 noundef 21, ptr noundef null) #11
  br i1 %54, label %57, label %60

55:                                               ; preds = %52
  %56 = call zeroext i1 @errstart(i32 noundef 21, ptr noundef null)
  br i1 %56, label %57, label %60

57:                                               ; preds = %55, %53
  %58 = call i32 @errcode(i32 noundef 50856066)
  %59 = call i32 (ptr, ...) @errmsg(ptr noundef @.str.28)
  call void @errfinish(ptr noundef @.str.2, i32 noundef 4801, ptr noundef @__func__.jsonb_delete_idx)
  br label %60

60:                                               ; preds = %57, %55, %53
  unreachable

61:                                               ; No predecessors!
  br label %62

62:                                               ; preds = %61
  br label %63

63:                                               ; preds = %62, %44
  %64 = load ptr, ptr %4, align 8
  %65 = getelementptr inbounds nuw %struct.anon, ptr %64, i32 0, i32 1
  %66 = getelementptr inbounds [0 x i8], ptr %65, i64 0, i64 0
  %67 = load i32, ptr %66, align 4
  %68 = and i32 %67, 268435455
  %69 = icmp eq i32 %68, 0
  br i1 %69, label %70, label %73

70:                                               ; preds = %63
  %71 = load ptr, ptr %4, align 8
  %72 = call i64 @PointerGetDatum(ptr noundef %71)
  store i64 %72, ptr %2, align 8
  store i32 1, ptr %13, align 4
  br label %131

73:                                               ; preds = %63
  %74 = load ptr, ptr %4, align 8
  %75 = getelementptr inbounds nuw %struct.Jsonb, ptr %74, i32 0, i32 1
  %76 = call ptr @JsonbIteratorInit(ptr noundef %75)
  store ptr %76, ptr %7, align 8
  %77 = call i32 @JsonbIteratorNext(ptr noundef %7, ptr noundef %10, i1 noundef zeroext false)
  store i32 %77, ptr %12, align 4
  %78 = getelementptr inbounds nuw %struct.JsonbValue, ptr %10, i32 0, i32 1
  %79 = getelementptr inbounds nuw %struct.anon.2, ptr %78, i32 0, i32 0
  %80 = load i32, ptr %79, align 8
  store i32 %80, ptr %9, align 4
  %81 = load i32, ptr %5, align 4
  %82 = icmp slt i32 %81, 0
  br i1 %82, label %83, label %95

83:                                               ; preds = %73
  %84 = load i32, ptr %5, align 4
  %85 = call i32 @pg_abs_s32(i32 noundef %84)
  %86 = load i32, ptr %9, align 4
  %87 = icmp ugt i32 %85, %86
  br i1 %87, label %88, label %90

88:                                               ; preds = %83
  %89 = load i32, ptr %9, align 4
  store i32 %89, ptr %5, align 4
  br label %94

90:                                               ; preds = %83
  %91 = load i32, ptr %9, align 4
  %92 = load i32, ptr %5, align 4
  %93 = add i32 %91, %92
  store i32 %93, ptr %5, align 4
  br label %94

94:                                               ; preds = %90, %88
  br label %95

95:                                               ; preds = %94, %73
  %96 = load i32, ptr %5, align 4
  %97 = load i32, ptr %9, align 4
  %98 = icmp uge i32 %96, %97
  br i1 %98, label %99, label %102

99:                                               ; preds = %95
  %100 = load ptr, ptr %4, align 8
  %101 = call i64 @PointerGetDatum(ptr noundef %100)
  store i64 %101, ptr %2, align 8
  store i32 1, ptr %13, align 4
  br label %131

102:                                              ; preds = %95
  %103 = load i32, ptr %12, align 4
  %104 = call ptr @pushJsonbValue(ptr noundef %6, i32 noundef %103, ptr noundef null)
  br label %105

105:                                              ; preds = %124, %116, %102
  %106 = call i32 @JsonbIteratorNext(ptr noundef %7, ptr noundef %10, i1 noundef zeroext true)
  store i32 %106, ptr %12, align 4
  %107 = icmp ne i32 %106, 0
  br i1 %107, label %108, label %127

108:                                              ; preds = %105
  %109 = load i32, ptr %12, align 4
  %110 = icmp eq i32 %109, 3
  br i1 %110, label %111, label %118

111:                                              ; preds = %108
  %112 = load i32, ptr %8, align 4
  %113 = add i32 %112, 1
  store i32 %113, ptr %8, align 4
  %114 = load i32, ptr %5, align 4
  %115 = icmp eq i32 %112, %114
  br i1 %115, label %116, label %117

116:                                              ; preds = %111
  br label %105, !llvm.loop !26

117:                                              ; preds = %111
  br label %118

118:                                              ; preds = %117, %108
  %119 = load i32, ptr %12, align 4
  %120 = load i32, ptr %12, align 4
  %121 = icmp ult i32 %120, 4
  br i1 %121, label %122, label %123

122:                                              ; preds = %118
  br label %124

123:                                              ; preds = %118
  br label %124

124:                                              ; preds = %123, %122
  %125 = phi ptr [ %10, %122 ], [ null, %123 ]
  %126 = call ptr @pushJsonbValue(ptr noundef %6, i32 noundef %119, ptr noundef %125)
  store ptr %126, ptr %11, align 8
  br label %105, !llvm.loop !26

127:                                              ; preds = %105
  %128 = load ptr, ptr %11, align 8
  %129 = call ptr @JsonbValueToJsonb(ptr noundef %128)
  %130 = call i64 @PointerGetDatum(ptr noundef %129)
  store i64 %130, ptr %2, align 8
  store i32 1, ptr %13, align 4
  br label %131

131:                                              ; preds = %127, %99, %70
  call void @llvm.lifetime.end.p0(i64 4, ptr %12) #10
  call void @llvm.lifetime.end.p0(i64 8, ptr %11) #10
  call void @llvm.lifetime.end.p0(i64 32, ptr %10) #10
  call void @llvm.lifetime.end.p0(i64 4, ptr %9) #10
  call void @llvm.lifetime.end.p0(i64 4, ptr %8) #10
  call void @llvm.lifetime.end.p0(i64 8, ptr %7) #10
  call void @llvm.lifetime.end.p0(i64 8, ptr %6) #10
  call void @llvm.lifetime.end.p0(i64 4, ptr %5) #10
  call void @llvm.lifetime.end.p0(i64 8, ptr %4) #10
  %132 = load i64, ptr %2, align 8
  ret i64 %132
}