; Function Attrs: nounwind uwtable
define dso_local i64 @jsonb_delete_idx(ptr noundef readonly captures(none) %0) local_unnamed_addr #0 {
  %2 = alloca ptr, align 8
  %3 = alloca ptr, align 8
  %4 = alloca %struct.JsonbValue, align 8
  %5 = getelementptr inbounds nuw i8, ptr %0, i64 32
  %6 = load i64, ptr %5, align 8
  %7 = inttoptr i64 %6 to ptr
  %8 = tail call ptr @pg_detoast_datum(ptr noundef %7) #15
  %9 = getelementptr inbounds nuw i8, ptr %0, i64 48
  %10 = load i64, ptr %9, align 8
  %11 = trunc i64 %10 to i32
  call void @llvm.lifetime.start.p0(i64 8, ptr nonnull %2) #15
  store ptr null, ptr %2, align 8
  call void @llvm.lifetime.start.p0(i64 8, ptr nonnull %3) #15
  call void @llvm.lifetime.start.p0(i64 32, ptr nonnull %4) #15
  %12 = getelementptr inbounds nuw i8, ptr %8, i64 4
  %13 = load i32, ptr %12, align 4
  %14 = and i32 %13, 268435456
  %.not = icmp eq i32 %14, 0
  br i1 %.not, label %19, label %15

15:                                               ; preds = %1
  %16 = tail call zeroext i1 @errstart_cold(i32 noundef 21, ptr noundef null) #16
  tail call void @llvm.assume(i1 %16)
  %17 = tail call i32 @errcode(i32 noundef 50856066) #15
  %18 = tail call i32 (ptr, ...) @errmsg(ptr noundef nonnull @.str.26) #15
  tail call void @errfinish(ptr noundef nonnull @.str.2, i32 noundef 4796, ptr noundef nonnull @__func__.jsonb_delete_idx) #15
  unreachable

19:                                               ; preds = %1
  %20 = and i32 %13, 536870912
  %.not31 = icmp eq i32 %20, 0
  br i1 %.not31, label %25, label %21

21:                                               ; preds = %19
  %22 = tail call zeroext i1 @errstart_cold(i32 noundef 21, ptr noundef null) #16
  tail call void @llvm.assume(i1 %22)
  %23 = tail call i32 @errcode(i32 noundef 50856066) #15
  %24 = tail call i32 (ptr, ...) @errmsg(ptr noundef nonnull @.str.28) #15
  tail call void @errfinish(ptr noundef nonnull @.str.2, i32 noundef 4801, ptr noundef nonnull @__func__.jsonb_delete_idx) #15
  unreachable

25:                                               ; preds = %19
  %26 = and i32 %13, 268435455
  %27 = icmp eq i32 %26, 0
  br i1 %27, label %50, label %28

28:                                               ; preds = %25
  %29 = tail call ptr @JsonbIteratorInit(ptr noundef nonnull %12) #15
  store ptr %29, ptr %3, align 8
  %30 = call i32 @JsonbIteratorNext(ptr noundef nonnull %3, ptr noundef nonnull %4, i1 noundef zeroext false) #15
  %31 = getelementptr inbounds nuw i8, ptr %4, i64 8
  %32 = load i32, ptr %31, align 8
  %33 = icmp slt i32 %11, 0
  %34 = sub i32 0, %11
  %35 = icmp ult i32 %32, %34
  %36 = select i1 %35, i32 0, i32 %11
  %spec.select = add i32 %36, %32
  %.025 = select i1 %33, i32 %spec.select, i32 %11
  %.not32 = icmp ult i32 %.025, %32
  br i1 %.not32, label %37, label %50

37:                                               ; preds = %28
  %38 = call ptr @pushJsonbValue(ptr noundef nonnull %2, i32 noundef %30, ptr noundef null) #15
  br label %.outer

.outer:                                           ; preds = %.thread, %37
  %.024.ph = phi i32 [ %.140, %.thread ], [ 0, %37 ]
  %.0.ph = phi ptr [ %47, %.thread ], [ null, %37 ]
  br label %39

39:                                               ; preds = %.outer, %41
  %.024 = phi i32 [ %42, %41 ], [ %.024.ph, %.outer ]
  %40 = call i32 @JsonbIteratorNext(ptr noundef nonnull %3, ptr noundef nonnull %4, i1 noundef zeroext true) #15
  switch i32 %40, label %44 [
    i32 0, label %48
    i32 3, label %41
  ]

41:                                               ; preds = %39
  %42 = add i32 %.024, 1
  %43 = icmp eq i32 %.024, %.025
  br i1 %43, label %39, label %.thread, !llvm.loop !31

44:                                               ; preds = %39
  %45 = icmp ult i32 %40, 4
  %spec.select47 = select i1 %45, ptr %4, ptr null
  br label %.thread

.thread:                                          ; preds = %41, %44
  %.140 = phi i32 [ %.024, %44 ], [ %42, %41 ]
  %46 = phi ptr [ %spec.select47, %44 ], [ %4, %41 ]
  %47 = call ptr @pushJsonbValue(ptr noundef nonnull %2, i32 noundef %40, ptr noundef %46) #15
  br label %.outer, !llvm.loop !31

48:                                               ; preds = %39
  %49 = call ptr @JsonbValueToJsonb(ptr noundef %.0.ph) #15
  br label %50

50:                                               ; preds = %28, %25, %48
  %.023.in = phi ptr [ %49, %48 ], [ %8, %25 ], [ %8, %28 ]
  %.023 = ptrtoint ptr %.023.in to i64
  call void @llvm.lifetime.end.p0(i64 32, ptr nonnull %4) #15
  call void @llvm.lifetime.end.p0(i64 8, ptr nonnull %3) #15
  call void @llvm.lifetime.end.p0(i64 8, ptr nonnull %2) #15
  ret i64 %.023
}